; ModuleID = '21/931.c'
source_filename = "21/931.c"
target datalayout = "e-m:e-p270:32:32-p271:32:32-p272:64:64-i64:64-f80:128-n8:16:32:64-S128"
target triple = "x86_64-pc-linux-gnu"

@.str = private unnamed_addr constant [3 x i8] c"%d\00", align 1
@.str.1 = private unnamed_addr constant [3 x i8] c"%f\00", align 1
@.str.2 = private unnamed_addr constant [5 x i8] c"%.0f\00", align 1
@.str.3 = private unnamed_addr constant [6 x i8] c",%.0f\00", align 1

; Function Attrs: noinline nounwind uwtable
define dso_local void @main() #0 {
  %1 = alloca i32, align 4
  %2 = alloca i32, align 4
  %3 = alloca i32, align 4
  %4 = alloca i32, align 4
  %5 = alloca [400 x float], align 16
  %6 = alloca [400 x float], align 16
  %7 = alloca float, align 4
  %8 = alloca float, align 4
  %9 = alloca float, align 4
  %10 = alloca float, align 4
  store i32 1, i32* %4, align 4
  store float 0.000000e+00, float* %8, align 4
  store float 0.000000e+00, float* %9, align 4
  %11 = call i32 (i8*, ...) @__isoc99_scanf(i8* getelementptr inbounds ([3 x i8], [3 x i8]* @.str, i64 0, i64 0), i32* %1)
  store i32 0, i32* %2, align 4
  br label %12

12:                                               ; preds = %21, %0
  %13 = load i32, i32* %2, align 4
  %14 = load i32, i32* %1, align 4
  %15 = icmp slt i32 %13, %14
  br i1 %15, label %16, label %24

16:                                               ; preds = %12
  %17 = load i32, i32* %2, align 4
  %18 = sext i32 %17 to i64
  %19 = getelementptr inbounds [400 x float], [400 x float]* %5, i64 0, i64 %18
  %20 = call i32 (i8*, ...) @__isoc99_scanf(i8* getelementptr inbounds ([3 x i8], [3 x i8]* @.str.1, i64 0, i64 0), float* %19)
  br label %21

21:                                               ; preds = %16
  %22 = load i32, i32* %2, align 4
  %23 = add nsw i32 %22, 1
  store i32 %23, i32* %2, align 4
  br label %12

24:                                               ; preds = %12
  store i32 0, i32* %2, align 4
  br label %25

25:                                               ; preds = %72, %24
  %26 = load i32, i32* %2, align 4
  %27 = load i32, i32* %1, align 4
  %28 = sub nsw i32 %27, 1
  %29 = icmp slt i32 %26, %28
  br i1 %29, label %30, label %75

30:                                               ; preds = %25
  store i32 0, i32* %3, align 4
  br label %31

31:                                               ; preds = %68, %30
  %32 = load i32, i32* %3, align 4
  %33 = load i32, i32* %1, align 4
  %34 = sub nsw i32 %33, 1
  %35 = load i32, i32* %2, align 4
  %36 = sub nsw i32 %34, %35
  %37 = icmp slt i32 %32, %36
  br i1 %37, label %38, label %71

38:                                               ; preds = %31
  %39 = load i32, i32* %3, align 4
  %40 = sext i32 %39 to i64
  %41 = getelementptr inbounds [400 x float], [400 x float]* %5, i64 0, i64 %40
  %42 = load float, float* %41, align 4
  %43 = load i32, i32* %3, align 4
  %44 = add nsw i32 %43, 1
  %45 = sext i32 %44 to i64
  %46 = getelementptr inbounds [400 x float], [400 x float]* %5, i64 0, i64 %45
  %47 = load float, float* %46, align 4
  %48 = fcmp ogt float %42, %47
  br i1 %48, label %49, label %67

49:                                               ; preds = %38
  %50 = load i32, i32* %3, align 4
  %51 = sext i32 %50 to i64
  %52 = getelementptr inbounds [400 x float], [400 x float]* %5, i64 0, i64 %51
  %53 = load float, float* %52, align 4
  store float %53, float* %10, align 4
  %54 = load i32, i32* %3, align 4
  %55 = add nsw i32 %54, 1
  %56 = sext i32 %55 to i64
  %57 = getelementptr inbounds [400 x float], [400 x float]* %5, i64 0, i64 %56
  %58 = load float, float* %57, align 4
  %59 = load i32, i32* %3, align 4
  %60 = sext i32 %59 to i64
  %61 = getelementptr inbounds [400 x float], [400 x float]* %5, i64 0, i64 %60
  store float %58, float* %61, align 4
  %62 = load float, float* %10, align 4
  %63 = load i32, i32* %3, align 4
  %64 = add nsw i32 %63, 1
  %65 = sext i32 %64 to i64
  %66 = getelementptr inbounds [400 x float], [400 x float]* %5, i64 0, i64 %65
  store float %62, float* %66, align 4
  br label %67

67:                                               ; preds = %49, %38
  br label %68

68:                                               ; preds = %67
  %69 = load i32, i32* %3, align 4
  %70 = add nsw i32 %69, 1
  store i32 %70, i32* %3, align 4
  br label %31

71:                                               ; preds = %31
  br label %72

72:                                               ; preds = %71
  %73 = load i32, i32* %2, align 4
  %74 = add nsw i32 %73, 1
  store i32 %74, i32* %2, align 4
  br label %25

75:                                               ; preds = %25
  store i32 0, i32* %2, align 4
  br label %76

76:                                               ; preds = %87, %75
  %77 = load i32, i32* %2, align 4
  %78 = load i32, i32* %1, align 4
  %79 = icmp slt i32 %77, %78
  br i1 %79, label %80, label %90

80:                                               ; preds = %76
  %81 = load i32, i32* %2, align 4
  %82 = sext i32 %81 to i64
  %83 = getelementptr inbounds [400 x float], [400 x float]* %5, i64 0, i64 %82
  %84 = load float, float* %83, align 4
  %85 = load float, float* %8, align 4
  %86 = fadd float %85, %84
  store float %86, float* %8, align 4
  br label %87

87:                                               ; preds = %80
  %88 = load i32, i32* %2, align 4
  %89 = add nsw i32 %88, 1
  store i32 %89, i32* %2, align 4
  br label %76

90:                                               ; preds = %76
  %91 = load float, float* %8, align 4
  %92 = load i32, i32* %1, align 4
  %93 = sitofp i32 %92 to float
  %94 = fdiv float %91, %93
  store float %94, float* %7, align 4
  store i32 0, i32* %2, align 4
  br label %95

95:                                               ; preds = %142, %90
  %96 = load i32, i32* %2, align 4
  %97 = load i32, i32* %1, align 4
  %98 = icmp slt i32 %96, %97
  br i1 %98, label %99, label %145

99:                                               ; preds = %95
  %100 = load i32, i32* %2, align 4
  %101 = sext i32 %100 to i64
  %102 = getelementptr inbounds [400 x float], [400 x float]* %5, i64 0, i64 %101
  %103 = load float, float* %102, align 4
  %104 = load float, float* %7, align 4
  %105 = fcmp oge float %103, %104
  br i1 %105, label %106, label %116

106:                                              ; preds = %99
  %107 = load i32, i32* %2, align 4
  %108 = sext i32 %107 to i64
  %109 = getelementptr inbounds [400 x float], [400 x float]* %5, i64 0, i64 %108
  %110 = load float, float* %109, align 4
  %111 = load float, float* %7, align 4
  %112 = fsub float %110, %111
  %113 = load i32, i32* %2, align 4
  %114 = sext i32 %113 to i64
  %115 = getelementptr inbounds [400 x float], [400 x float]* %6, i64 0, i64 %114
  store float %112, float* %115, align 4
  br label %126

116:                                              ; preds = %99
  %117 = load float, float* %7, align 4
  %118 = load i32, i32* %2, align 4
  %119 = sext i32 %118 to i64
  %120 = getelementptr inbounds [400 x float], [400 x float]* %5, i64 0, i64 %119
  %121 = load float, float* %120, align 4
  %122 = fsub float %117, %121
  %123 = load i32, i32* %2, align 4
  %124 = sext i32 %123 to i64
  %125 = getelementptr inbounds [400 x float], [400 x float]* %6, i64 0, i64 %124
  store float %122, float* %125, align 4
  br label %126

126:                                              ; preds = %116, %106
  %127 = load float, float* %9, align 4
  %128 = load i32, i32* %2, align 4
  %129 = sext i32 %128 to i64
  %130 = getelementptr inbounds [400 x float], [400 x float]* %6, i64 0, i64 %129
  %131 = load float, float* %130, align 4
  %132 = fcmp ogt float %127, %131
  br i1 %132, label %133, label %135

133:                                              ; preds = %126
  %134 = load float, float* %9, align 4
  br label %140

135:                                              ; preds = %126
  %136 = load i32, i32* %2, align 4
  %137 = sext i32 %136 to i64
  %138 = getelementptr inbounds [400 x float], [400 x float]* %6, i64 0, i64 %137
  %139 = load float, float* %138, align 4
  br label %140

140:                                              ; preds = %135, %133
  %141 = phi float [ %134, %133 ], [ %139, %135 ]
  store float %141, float* %9, align 4
  br label %142

142:                                              ; preds = %140
  %143 = load i32, i32* %2, align 4
  %144 = add nsw i32 %143, 1
  store i32 %144, i32* %2, align 4
  br label %95

145:                                              ; preds = %95
  store i32 0, i32* %2, align 4
  br label %146

146:                                              ; preds = %176, %145
  %147 = load i32, i32* %2, align 4
  %148 = load i32, i32* %1, align 4
  %149 = icmp slt i32 %147, %148
  br i1 %149, label %150, label %179

150:                                              ; preds = %146
  %151 = load i32, i32* %2, align 4
  %152 = sext i32 %151 to i64
  %153 = getelementptr inbounds [400 x float], [400 x float]* %6, i64 0, i64 %152
  %154 = load float, float* %153, align 4
  %155 = load float, float* %9, align 4
  %156 = fcmp oeq float %154, %155
  br i1 %156, label %157, label %175

157:                                              ; preds = %150
  %158 = load i32, i32* %4, align 4
  %159 = icmp ne i32 %158, 0
  br i1 %159, label %160, label %167

160:                                              ; preds = %157
  %161 = load i32, i32* %2, align 4
  %162 = sext i32 %161 to i64
  %163 = getelementptr inbounds [400 x float], [400 x float]* %5, i64 0, i64 %162
  %164 = load float, float* %163, align 4
  %165 = fpext float %164 to double
  %166 = call i32 (i8*, ...) @printf(i8* getelementptr inbounds ([5 x i8], [5 x i8]* @.str.2, i64 0, i64 0), double %165)
  store i32 0, i32* %4, align 4
  br label %174

167:                                              ; preds = %157
  %168 = load i32, i32* %2, align 4
  %169 = sext i32 %168 to i64
  %170 = getelementptr inbounds [400 x float], [400 x float]* %5, i64 0, i64 %169
  %171 = load float, float* %170, align 4
  %172 = fpext float %171 to double
  %173 = call i32 (i8*, ...) @printf(i8* getelementptr inbounds ([6 x i8], [6 x i8]* @.str.3, i64 0, i64 0), double %172)
  br label %174

174:                                              ; preds = %167, %160
  br label %175

175:                                              ; preds = %174, %150
  br label %176

176:                                              ; preds = %175
  %177 = load i32, i32* %2, align 4
  %178 = add nsw i32 %177, 1
  store i32 %178, i32* %2, align 4
  br label %146

179:                                              ; preds = %146
  ret void
}

declare dso_local i32 @__isoc99_scanf(i8*, ...) #1

declare dso_local i32 @printf(i8*, ...) #1


!llvm.module.flags = !{!0}
!llvm.ident = !{!1}

!0 = !{i32 1, !"wchar_size", i32 4}
!1 = !{!"clang version 10.0.0-4ubuntu1 "}
